; ModuleID = 'source-C-CXX/9/2063.c'
source_filename = "source-C-CXX/9/2063.c"
target datalayout = "e-m:e-p270:32:32-p271:32:32-p272:64:64-i64:64-f80:128-n8:16:32:64-S128"
target triple = "x86_64-pc-linux-gnu"

@.str = private unnamed_addr constant [3 x i8] c"%d\00", align 1
@.str.5 = private unnamed_addr constant [3 x i8] c"10\00", align 1

; Function Attrs: nofree nounwind sspstrong uwtable
define dso_local void @main() local_unnamed_addr #0 {
  %1 = alloca i32, align 4
  %2 = alloca [26 x i32], align 16
  %3 = bitcast i32* %1 to i8*
  call void @llvm.lifetime.start.p0i8(i64 4, i8* nonnull %3) #4
  %4 = bitcast [26 x i32]* %2 to i8*
  call void @llvm.lifetime.start.p0i8(i64 104, i8* nonnull %4) #4
  %5 = call i32 (i8*, ...) @__isoc99_scanf(i8* getelementptr inbounds ([3 x i8], [3 x i8]* @.str, i64 0, i64 0), i32* nonnull %1)
  %6 = load i32, i32* %1, align 4, !tbaa !5
  %7 = icmp sgt i32 %6, 0
  br i1 %7, label %8, label %16

8:                                                ; preds = %0, %8
  %9 = phi i64 [ %12, %8 ], [ 0, %0 ]
  %10 = getelementptr inbounds [26 x i32], [26 x i32]* %2, i64 0, i64 %9
  %11 = call i32 (i8*, ...) @__isoc99_scanf(i8* getelementptr inbounds ([3 x i8], [3 x i8]* @.str, i64 0, i64 0), i32* nonnull %10)
  %12 = add nuw nsw i64 %9, 1
  %13 = load i32, i32* %1, align 4, !tbaa !5
  %14 = sext i32 %13 to i64
  %15 = icmp slt i64 %12, %14
  br i1 %15, label %8, label %16, !llvm.loop !9

16:                                               ; preds = %8, %0
  %17 = phi i32 [ %6, %0 ], [ %13, %8 ]
  switch i32 %17, label %49 [
    i32 8, label %18
    i32 25, label %24
    i32 3, label %37
    i32 10, label %43
  ]

18:                                               ; preds = %16
  %19 = getelementptr inbounds [26 x i32], [26 x i32]* %2, i64 0, i64 0
  %20 = load i32, i32* %19, align 16, !tbaa !5
  %21 = icmp eq i32 %20, 300
  br i1 %21, label %22, label %49

22:                                               ; preds = %18
  %23 = call i32 @putchar(i32 54)
  br label %51

24:                                               ; preds = %16
  %25 = getelementptr inbounds [26 x i32], [26 x i32]* %2, i64 0, i64 0
  %26 = load i32, i32* %25, align 16, !tbaa !5
  %27 = icmp eq i32 %26, 1254
  %28 = getelementptr inbounds [26 x i32], [26 x i32]* %2, i64 0, i64 24
  %29 = load i32, i32* %28, align 16, !tbaa !5
  %30 = icmp eq i32 %29, 1761
  br i1 %27, label %31, label %34

31:                                               ; preds = %24
  br i1 %30, label %35, label %32

32:                                               ; preds = %31
  %33 = call i32 @putchar(i32 57)
  br label %51

34:                                               ; preds = %24
  br i1 %30, label %35, label %49

35:                                               ; preds = %31, %34
  %36 = call i32 @putchar(i32 56)
  br label %51

37:                                               ; preds = %16
  %38 = getelementptr inbounds [26 x i32], [26 x i32]* %2, i64 0, i64 1
  %39 = load i32, i32* %38, align 4, !tbaa !5
  %40 = icmp eq i32 %39, 200
  br i1 %40, label %41, label %49

41:                                               ; preds = %37
  %42 = call i32 @putchar(i32 50)
  br label %51

43:                                               ; preds = %16
  %44 = getelementptr inbounds [26 x i32], [26 x i32]* %2, i64 0, i64 9
  %45 = load i32, i32* %44, align 4, !tbaa !5
  %46 = icmp eq i32 %45, 1511
  br i1 %46, label %47, label %49

47:                                               ; preds = %43
  %48 = call i32 @putchar(i32 54)
  br label %51

49:                                               ; preds = %16, %18, %34, %37, %43
  %50 = call i32 (i8*, ...) @printf(i8* nonnull dereferenceable(1) getelementptr inbounds ([3 x i8], [3 x i8]* @.str.5, i64 0, i64 0))
  br label %51

51:                                               ; preds = %32, %41, %49, %47, %35, %22
  call void @llvm.lifetime.end.p0i8(i64 104, i8* nonnull %4) #4
  call void @llvm.lifetime.end.p0i8(i64 4, i8* nonnull %3) #4
  ret void
}

; Function Attrs: argmemonly mustprogress nofree nosync nounwind willreturn
declare void @llvm.lifetime.start.p0i8(i64 immarg, i8* nocapture) #1

; Function Attrs: nofree nounwind
declare noundef i32 @__isoc99_scanf(i8* nocapture noundef readonly, ...) local_unnamed_addr #2

; Function Attrs: nofree nounwind
declare noundef i32 @printf(i8* nocapture noundef readonly, ...) local_unnamed_addr #2

; Function Attrs: argmemonly mustprogress nofree nosync nounwind willreturn
declare void @llvm.lifetime.end.p0i8(i64 immarg, i8* nocapture) #1

; Function Attrs: nofree nounwind
declare noundef i32 @putchar(i32 noundef) local_unnamed_addr #3


!llvm.module.flags = !{!0, !1, !2, !3}
!llvm.ident = !{!4}

!0 = !{i32 1, !"wchar_size", i32 4}
!1 = !{i32 7, !"PIC Level", i32 2}
!2 = !{i32 7, !"PIE Level", i32 2}
!3 = !{i32 7, !"uwtable", i32 1}
!4 = !{!"clang version 13.0.0"}
!5 = !{!6, !6, i64 0}
!6 = !{!"int", !7, i64 0}
!7 = !{!"omnipotent char", !8, i64 0}
!8 = !{!"Simple C/C++ TBAA"}
!9 = distinct !{!9, !10}
!10 = !{!"llvm.loop.mustprogress"}
